; ModuleID = 'bench/ffmpeg/original/rtpdec_g726.ll'
source_filename = "bench/ffmpeg/original/rtpdec_g726.ll"
target datalayout = "e-m:e-p270:32:32-p271:32:32-p272:64:64-i64:64-i128:128-f80:128-n8:16:32:64-S128"
target triple = "x86_64-pc-linux-gnu"

@.str = private unnamed_addr constant [13 x i8] c"AAL2-G726-16\00", align 1
@ff_g726_16_dynamic_handler = local_unnamed_addr constant { ptr, i32, i32, i32, i32, i32, [4 x i8], ptr, ptr, ptr, ptr, ptr } { ptr @.str, i32 1, i32 69643, i32 0, i32 0, i32 0, [4 x i8] zeroinitializer, ptr @g726_16_init, ptr null, ptr null, ptr null, ptr null }, align 8
@.str.1 = private unnamed_addr constant [8 x i8] c"G726-16\00", align 1
@ff_g726le_16_dynamic_handler = local_unnamed_addr constant { ptr, i32, i32, i32, i32, i32, [4 x i8], ptr, ptr, ptr, ptr, ptr } { ptr @.str.1, i32 1, i32 69667, i32 0, i32 0, i32 0, [4 x i8] zeroinitializer, ptr @g726_16_init, ptr null, ptr null, ptr null, ptr null }, align 8
@.str.2 = private unnamed_addr constant [13 x i8] c"AAL2-G726-24\00", align 1
@ff_g726_24_dynamic_handler = local_unnamed_addr constant { ptr, i32, i32, i32, i32, i32, [4 x i8], ptr, ptr, ptr, ptr, ptr } { ptr @.str.2, i32 1, i32 69643, i32 0, i32 0, i32 0, [4 x i8] zeroinitializer, ptr @g726_24_init, ptr null, ptr null, ptr null, ptr null }, align 8
@.str.3 = private unnamed_addr constant [8 x i8] c"G726-24\00", align 1
@ff_g726le_24_dynamic_handler = local_unnamed_addr constant { ptr, i32, i32, i32, i32, i32, [4 x i8], ptr, ptr, ptr, ptr, ptr } { ptr @.str.3, i32 1, i32 69667, i32 0, i32 0, i32 0, [4 x i8] zeroinitializer, ptr @g726_24_init, ptr null, ptr null, ptr null, ptr null }, align 8
@.str.4 = private unnamed_addr constant [13 x i8] c"AAL2-G726-32\00", align 1
@ff_g726_32_dynamic_handler = local_unnamed_addr constant { ptr, i32, i32, i32, i32, i32, [4 x i8], ptr, ptr, ptr, ptr, ptr } { ptr @.str.4, i32 1, i32 69643, i32 0, i32 0, i32 0, [4 x i8] zeroinitializer, ptr @g726_32_init, ptr null, ptr null, ptr null, ptr null }, align 8
@.str.5 = private unnamed_addr constant [8 x i8] c"G726-32\00", align 1
@ff_g726le_32_dynamic_handler = local_unnamed_addr constant { ptr, i32, i32, i32, i32, i32, [4 x i8], ptr, ptr, ptr, ptr, ptr } { ptr @.str.5, i32 1, i32 69667, i32 0, i32 0, i32 0, [4 x i8] zeroinitializer, ptr @g726_32_init, ptr null, ptr null, ptr null, ptr null }, align 8
@.str.6 = private unnamed_addr constant [13 x i8] c"AAL2-G726-40\00", align 1
@ff_g726_40_dynamic_handler = local_unnamed_addr constant { ptr, i32, i32, i32, i32, i32, [4 x i8], ptr, ptr, ptr, ptr, ptr } { ptr @.str.6, i32 1, i32 69643, i32 0, i32 0, i32 0, [4 x i8] zeroinitializer, ptr @g726_40_init, ptr null, ptr null, ptr null, ptr null }, align 8
@.str.7 = private unnamed_addr constant [8 x i8] c"G726-40\00", align 1
@ff_g726le_40_dynamic_handler = local_unnamed_addr constant { ptr, i32, i32, i32, i32, i32, [4 x i8], ptr, ptr, ptr, ptr, ptr } { ptr @.str.7, i32 1, i32 69667, i32 0, i32 0, i32 0, [4 x i8] zeroinitializer, ptr @g726_40_init, ptr null, ptr null, ptr null, ptr null }, align 8

; Function Attrs: cold mustprogress nofree norecurse nosync nounwind optsize willreturn memory(readwrite, inaccessiblemem: none) uwtable
define internal noundef i32 @g726_16_init(ptr noundef readonly captures(none) %0, i32 noundef %1, ptr readnone captures(none) %2) #0 {
  %4 = getelementptr inbounds nuw i8, ptr %0, i64 48
  %5 = load ptr, ptr %4, align 8, !tbaa !4
  %6 = sext i32 %1 to i64
  %7 = getelementptr inbounds ptr, ptr %5, i64 %6
  %8 = load ptr, ptr %7, align 8, !tbaa !24
  %9 = getelementptr inbounds nuw i8, ptr %8, i64 16
  %10 = load ptr, ptr %9, align 8, !tbaa !26
  %11 = getelementptr inbounds nuw i8, ptr %10, i64 56
  store i32 2, ptr %11, align 8, !tbaa !33
  %12 = getelementptr inbounds nuw i8, ptr %10, i64 152
  %13 = load i32, ptr %12, align 8, !tbaa !36
  %14 = shl nsw i32 %13, 1
  %15 = sext i32 %14 to i64
  %16 = getelementptr inbounds nuw i8, ptr %10, i64 48
  store i64 %15, ptr %16, align 8, !tbaa !37
  ret i32 0
}

; Function Attrs: cold mustprogress nofree norecurse nosync nounwind optsize willreturn memory(readwrite, inaccessiblemem: none) uwtable
define internal noundef i32 @g726_24_init(ptr noundef readonly captures(none) %0, i32 noundef %1, ptr readnone captures(none) %2) #0 {
  %4 = getelementptr inbounds nuw i8, ptr %0, i64 48
  %5 = load ptr, ptr %4, align 8, !tbaa !4
  %6 = sext i32 %1 to i64
  %7 = getelementptr inbounds ptr, ptr %5, i64 %6
  %8 = load ptr, ptr %7, align 8, !tbaa !24
  %9 = getelementptr inbounds nuw i8, ptr %8, i64 16
  %10 = load ptr, ptr %9, align 8, !tbaa !26
  %11 = getelementptr inbounds nuw i8, ptr %10, i64 56
  store i32 3, ptr %11, align 8, !tbaa !33
  %12 = getelementptr inbounds nuw i8, ptr %10, i64 152
  %13 = load i32, ptr %12, align 8, !tbaa !36
  %14 = mul nsw i32 %13, 3
  %15 = sext i32 %14 to i64
  %16 = getelementptr inbounds nuw i8, ptr %10, i64 48
  store i64 %15, ptr %16, align 8, !tbaa !37
  ret i32 0
}

; Function Attrs: cold mustprogress nofree norecurse nosync nounwind optsize willreturn memory(readwrite, inaccessiblemem: none) uwtable
define internal noundef i32 @g726_32_init(ptr noundef readonly captures(none) %0, i32 noundef %1, ptr readnone captures(none) %2) #0 {
  %4 = getelementptr inbounds nuw i8, ptr %0, i64 48
  %5 = load ptr, ptr %4, align 8, !tbaa !4
  %6 = sext i32 %1 to i64
  %7 = getelementptr inbounds ptr, ptr %5, i64 %6
  %8 = load ptr, ptr %7, align 8, !tbaa !24
  %9 = getelementptr inbounds nuw i8, ptr %8, i64 16
  %10 = load ptr, ptr %9, align 8, !tbaa !26
  %11 = getelementptr inbounds nuw i8, ptr %10, i64 56
  store i32 4, ptr %11, align 8, !tbaa !33
  %12 = getelementptr inbounds nuw i8, ptr %10, i64 152
  %13 = load i32, ptr %12, align 8, !tbaa !36
  %14 = shl nsw i32 %13, 2
  %15 = sext i32 %14 to i64
  %16 = getelementptr inbounds nuw i8, ptr %10, i64 48
  store i64 %15, ptr %16, align 8, !tbaa !37
  ret i32 0
}

; Function Attrs: cold mustprogress nofree norecurse nosync nounwind optsize willreturn memory(readwrite, inaccessiblemem: none) uwtable
define internal noundef i32 @g726_40_init(ptr noundef readonly captures(none) %0, i32 noundef %1, ptr readnone captures(none) %2) #0 {
  %4 = getelementptr inbounds nuw i8, ptr %0, i64 48
  %5 = load ptr, ptr %4, align 8, !tbaa !4
  %6 = sext i32 %1 to i64
  %7 = getelementptr inbounds ptr, ptr %5, i64 %6
  %8 = load ptr, ptr %7, align 8, !tbaa !24
  %9 = getelementptr inbounds nuw i8, ptr %8, i64 16
  %10 = load ptr, ptr %9, align 8, !tbaa !26
  %11 = getelementptr inbounds nuw i8, ptr %10, i64 56
  store i32 5, ptr %11, align 8, !tbaa !33
  %12 = getelementptr inbounds nuw i8, ptr %10, i64 152
  %13 = load i32, ptr %12, align 8, !tbaa !36
  %14 = mul nsw i32 %13, 5
  %15 = sext i32 %14 to i64
  %16 = getelementptr inbounds nuw i8, ptr %10, i64 48
  store i64 %15, ptr %16, align 8, !tbaa !37
  ret i32 0
}


!llvm.module.flags = !{!0, !1, !2, !3}

!0 = !{i32 1, !"wchar_size", i32 4}
!1 = !{i32 8, !"PIC Level", i32 2}
!2 = !{i32 7, !"uwtable", i32 2}
!3 = !{i32 1, !"override-stack-alignment", i32 16}
!4 = !{!5, !14, i64 48}
!5 = !{!"AVFormatContext", !6, i64 0, !10, i64 8, !11, i64 16, !7, i64 24, !12, i64 32, !13, i64 40, !13, i64 44, !14, i64 48, !13, i64 56, !16, i64 64, !13, i64 72, !17, i64 80, !18, i64 88, !19, i64 96, !19, i64 104, !19, i64 112, !13, i64 120, !13, i64 124, !13, i64 128, !19, i64 136, !19, i64 144, !18, i64 152, !13, i64 160, !13, i64 164, !20, i64 168, !13, i64 176, !13, i64 180, !13, i64 184, !13, i64 188, !21, i64 192, !19, i64 200, !13, i64 208, !13, i64 212, !22, i64 216, !13, i64 232, !13, i64 236, !13, i64 240, !13, i64 244, !19, i64 248, !13, i64 256, !13, i64 260, !13, i64 264, !13, i64 268, !13, i64 272, !13, i64 276, !13, i64 280, !13, i64 284, !13, i64 288, !13, i64 292, !13, i64 296, !13, i64 300, !19, i64 304, !13, i64 312, !13, i64 316, !13, i64 320, !13, i64 324, !13, i64 328, !18, i64 336, !18, i64 344, !18, i64 352, !18, i64 360, !13, i64 368, !23, i64 376, !23, i64 384, !23, i64 392, !23, i64 400, !13, i64 408, !7, i64 416, !7, i64 424, !19, i64 432, !18, i64 440, !7, i64 448, !7, i64 456, !19, i64 464}
!6 = !{!"p1 _ZTS7AVClass", !7, i64 0}
!7 = !{!"any pointer", !8, i64 0}
!8 = !{!"omnipotent char", !9, i64 0}
!9 = !{!"Simple C/C++ TBAA"}
!10 = !{!"p1 _ZTS13AVInputFormat", !7, i64 0}
!11 = !{!"p1 _ZTS14AVOutputFormat", !7, i64 0}
!12 = !{!"p1 _ZTS11AVIOContext", !7, i64 0}
!13 = !{!"int", !8, i64 0}
!14 = !{!"p2 _ZTS8AVStream", !15, i64 0}
!15 = !{!"any p2 pointer", !7, i64 0}
!16 = !{!"p2 _ZTS13AVStreamGroup", !15, i64 0}
!17 = !{!"p2 _ZTS9AVChapter", !15, i64 0}
!18 = !{!"p1 omnipotent char", !7, i64 0}
!19 = !{!"long", !8, i64 0}
!20 = !{!"p2 _ZTS9AVProgram", !15, i64 0}
!21 = !{!"p1 _ZTS12AVDictionary", !7, i64 0}
!22 = !{!"AVIOInterruptCB", !7, i64 0, !7, i64 8}
!23 = !{!"p1 _ZTS7AVCodec", !7, i64 0}
!24 = !{!25, !25, i64 0}
!25 = !{!"p1 _ZTS8AVStream", !7, i64 0}
!26 = !{!27, !28, i64 16}
!27 = !{!"AVStream", !6, i64 0, !13, i64 8, !13, i64 12, !28, i64 16, !7, i64 24, !29, i64 32, !19, i64 40, !19, i64 48, !19, i64 56, !13, i64 64, !13, i64 68, !29, i64 72, !21, i64 80, !29, i64 88, !30, i64 96, !13, i64 200, !29, i64 204, !13, i64 212}
!28 = !{!"p1 _ZTS17AVCodecParameters", !7, i64 0}
!29 = !{!"AVRational", !13, i64 0, !13, i64 4}
!30 = !{!"AVPacket", !31, i64 0, !19, i64 8, !19, i64 16, !18, i64 24, !13, i64 32, !13, i64 36, !13, i64 40, !32, i64 48, !13, i64 56, !19, i64 64, !19, i64 72, !7, i64 80, !31, i64 88, !29, i64 96}
!31 = !{!"p1 _ZTS11AVBufferRef", !7, i64 0}
!32 = !{!"p1 _ZTS16AVPacketSideData", !7, i64 0}
!33 = !{!34, !13, i64 56}
!34 = !{!"AVCodecParameters", !13, i64 0, !13, i64 4, !13, i64 8, !18, i64 16, !13, i64 24, !32, i64 32, !13, i64 40, !13, i64 44, !19, i64 48, !13, i64 56, !13, i64 60, !13, i64 64, !13, i64 68, !13, i64 72, !13, i64 76, !29, i64 80, !29, i64 88, !13, i64 96, !13, i64 100, !13, i64 104, !13, i64 108, !13, i64 112, !13, i64 116, !13, i64 120, !35, i64 128, !13, i64 152, !13, i64 156, !13, i64 160, !13, i64 164, !13, i64 168, !13, i64 172}
!35 = !{!"AVChannelLayout", !13, i64 0, !13, i64 4, !8, i64 8, !7, i64 16}
!36 = !{!34, !13, i64 152}
!37 = !{!34, !19, i64 48}
